; Function Attrs: mustprogress uwtable
define hidden void @_ZNK4cvc58internal8TCtxNode8getChildEm(ptr dead_on_unwind noalias writable writeonly sret(%"class.cvc5::internal::TCtxNode") align 8 captures(none) %0, ptr noundef nonnull readonly align 8 captures(none) dereferenceable(24) %1, i64 noundef %2) local_unnamed_addr #3 align 2 personality ptr @__gxx_personality_v0 {
  %4 = alloca %"class.cvc5::internal::NodeTemplate", align 8
  %5 = alloca %"class.cvc5::internal::NodeTemplate.0", align 8
  tail call void @llvm.experimental.noalias.scope.decl(metadata !18)
  %6 = load ptr, ptr %1, align 8, !tbaa !3, !noalias !18
  %7 = getelementptr inbounds nuw i8, ptr %6, i64 8
  %8 = load i64, ptr %7, align 8, !noalias !18
  %9 = trunc i64 %8 to i32
  %10 = and i32 %9, 1023
  %11 = icmp eq i32 %10, 1023
  %12 = select i1 %11, i32 -1, i32 %10
  %13 = tail call noundef i32 @_ZN4cvc58internal4kind10metaKindOfENS1_6Kind_tE(i32 noundef %12), !noalias !18
  %14 = icmp eq i32 %13, 2
  %15 = zext i1 %14 to i64
  %spec.select.i.i = add i64 %2, %15
  %16 = getelementptr inbounds nuw i8, ptr %6, i64 24
  %sext = shl i64 %spec.select.i.i, 32
  %17 = ashr exact i64 %sext, 32
  %18 = getelementptr inbounds [0 x ptr], ptr %16, i64 0, i64 %17
  %19 = load ptr, ptr %18, align 8, !tbaa !21, !noalias !18
  store ptr %19, ptr %4, align 8, !tbaa !3, !alias.scope !18
  %20 = load i64, ptr %19, align 8, !noalias !18
  %21 = lshr i64 %20, 40
  %22 = trunc nuw nsw i64 %21 to i32
  %23 = and i32 %22, 1048575
  %24 = icmp samesign ult i32 %23, 1048574
  br i1 %24, label %25, label %30, !prof !9

25:                                               ; preds = %3
  %26 = add i64 %20, 1099511627776
  %27 = and i64 %26, 1152920405095219200
  %28 = and i64 %20, -1152920405095219201
  %29 = or disjoint i64 %27, %28
  store i64 %29, ptr %19, align 8, !noalias !18
  br label %_ZNK4cvc58internal12NodeTemplateILb1EEixEi.exit

30:                                               ; preds = %3
  %31 = icmp eq i32 %23, 1048574
  br i1 %31, label %32, label %_ZNK4cvc58internal12NodeTemplateILb1EEixEi.exit, !prof !10

32:                                               ; preds = %30
  %33 = or i64 %20, 1152920405095219200
  store i64 %33, ptr %19, align 8, !noalias !18
  tail call void @_ZN4cvc58internal4expr9NodeValue20markRefCountMaxedOutEv(ptr noundef nonnull align 8 dereferenceable(24) %19), !noalias !18
  br label %_ZNK4cvc58internal12NodeTemplateILb1EEixEi.exit

_ZNK4cvc58internal12NodeTemplateILb1EEixEi.exit:  ; preds = %25, %30, %32
  %34 = getelementptr inbounds nuw i8, ptr %1, i64 16
  %35 = load ptr, ptr %34, align 8, !tbaa !17
  %36 = load ptr, ptr %1, align 8, !tbaa !3
  store ptr %36, ptr %5, align 8, !tbaa !22
  %37 = getelementptr inbounds nuw i8, ptr %1, i64 8
  %38 = load i32, ptr %37, align 8, !tbaa !13
  %39 = load ptr, ptr %35, align 8, !tbaa !11
  %40 = getelementptr inbounds nuw i8, ptr %39, i64 24
  %41 = load ptr, ptr %40, align 8
  %42 = invoke noundef i32 %41(ptr noundef nonnull align 8 dereferenceable(8) %35, ptr noundef nonnull %5, i32 noundef %38, i64 noundef %2)
          to label %43 unwind label %74

43:                                               ; preds = %_ZNK4cvc58internal12NodeTemplateILb1EEixEi.exit
  %44 = load ptr, ptr %34, align 8, !tbaa !17
  store ptr %19, ptr %0, align 8, !tbaa !3
  %45 = load i64, ptr %19, align 8
  %46 = lshr i64 %45, 40
  %47 = trunc nuw nsw i64 %46 to i32
  %48 = and i32 %47, 1048575
  %49 = icmp samesign ult i32 %48, 1048574
  br i1 %49, label %50, label %55, !prof !9

50:                                               ; preds = %43
  %51 = add i64 %45, 1099511627776
  %52 = and i64 %51, 1152920405095219200
  %53 = and i64 %45, -1152920405095219201
  %54 = or disjoint i64 %52, %53
  store i64 %54, ptr %19, align 8
  br label %59

55:                                               ; preds = %43
  %56 = icmp eq i32 %48, 1048574
  br i1 %56, label %57, label %59, !prof !10

57:                                               ; preds = %55
  %58 = or i64 %45, 1152920405095219200
  store i64 %58, ptr %19, align 8
  invoke void @_ZN4cvc58internal4expr9NodeValue20markRefCountMaxedOutEv(ptr noundef nonnull align 8 dereferenceable(24) %19)
          to label %._crit_edge unwind label %74

._crit_edge:                                      ; preds = %57
  %.pre = load i64, ptr %19, align 8
  br label %59

59:                                               ; preds = %._crit_edge, %55, %50
  %60 = phi i64 [ %.pre, %._crit_edge ], [ %45, %55 ], [ %54, %50 ]
  %61 = getelementptr inbounds nuw i8, ptr %0, i64 8
  store i32 %42, ptr %61, align 8, !tbaa !13
  %62 = getelementptr inbounds nuw i8, ptr %0, i64 16
  store ptr %44, ptr %62, align 8, !tbaa !17
  %63 = and i64 %60, 1152920405095219200
  %.not.i.i = icmp eq i64 %63, 1152920405095219200
  br i1 %.not.i.i, label %_ZN4cvc58internal12NodeTemplateILb1EED2Ev.exit, label %64, !prof !10

64:                                               ; preds = %59
  %65 = add i64 %60, 1152920405095219200
  %66 = and i64 %65, 1152920405095219200
  %67 = and i64 %60, -1152920405095219201
  %68 = or disjoint i64 %66, %67
  store i64 %68, ptr %19, align 8
  %69 = icmp eq i64 %66, 0
  br i1 %69, label %70, label %_ZN4cvc58internal12NodeTemplateILb1EED2Ev.exit, !prof !10

70:                                               ; preds = %64
  invoke void @_ZN4cvc58internal4expr9NodeValue15markForDeletionEv(ptr noundef nonnull align 8 dereferenceable(24) %19)
          to label %_ZN4cvc58internal12NodeTemplateILb1EED2Ev.exit unwind label %71

71:                                               ; preds = %70
  %72 = landingpad { ptr, i32 }
          catch ptr null
  %73 = extractvalue { ptr, i32 } %72, 0
  call void @__clang_call_terminate(ptr %73) #19
  unreachable

_ZN4cvc58internal12NodeTemplateILb1EED2Ev.exit:   ; preds = %59, %64, %70
  ret void

74:                                               ; preds = %57, %_ZNK4cvc58internal12NodeTemplateILb1EEixEi.exit
  %75 = landingpad { ptr, i32 }
          cleanup
  call void @_ZN4cvc58internal12NodeTemplateILb1EED2Ev(ptr noundef nonnull align 8 dereferenceable(8) %4) #18
  resume { ptr, i32 } %75
}